; Function Attrs: null_pointer_is_valid sspstrong uwtable
define internal i32 @dissect_h245_T_messageContent_item(ptr noundef %0, i32 noundef %1, ptr noundef %2, ptr noundef %3, i32 noundef %4) #1 {
  %6 = getelementptr inbounds nuw i8, ptr %2, i64 48
  %7 = load ptr, ptr %6, align 8
  %8 = tail call ptr @gef_ctx_get(ptr noundef %7)
  %9 = getelementptr inbounds nuw i8, ptr %2, i64 16
  %10 = load ptr, ptr %9, align 8
  %11 = getelementptr inbounds nuw i8, ptr %10, i64 408
  %12 = load ptr, ptr %11, align 8
  %13 = tail call ptr @gef_ctx_alloc(ptr noundef %12, ptr noundef %8, ptr noundef null)
  store ptr %13, ptr %6, align 8
  %14 = load ptr, ptr %9, align 8
  %15 = getelementptr inbounds nuw i8, ptr %14, i64 432
  %16 = load i32, ptr %15, align 8
  %17 = add i32 %16, 3
  store i32 %17, ptr %15, align 8
  %18 = load ptr, ptr %9, align 8
  tail call void @increment_dissection_depth(ptr noundef %18)
  %19 = load i32, ptr @ett_h245_GenericParameter, align 4
  %20 = tail call i32 @dissect_per_sequence(ptr noundef %0, i32 noundef %1, ptr noundef %2, ptr noundef %3, i32 noundef %4, i32 noundef %19, ptr noundef nonnull @GenericParameter_sequence)
  %21 = load ptr, ptr %9, align 8
  %22 = getelementptr inbounds nuw i8, ptr %21, i64 432
  %23 = load i32, ptr %22, align 8
  %24 = add i32 %23, -3
  store i32 %24, ptr %22, align 8
  %25 = load ptr, ptr %9, align 8
  tail call void @decrement_dissection_depth(ptr noundef %25)
  store ptr %8, ptr %6, align 8
  ret i32 %20
}